; ModuleID = '19/2825.c'
source_filename = "19/2825.c"
target datalayout = "e-m:e-p270:32:32-p271:32:32-p272:64:64-i64:64-f80:128-n8:16:32:64-S128"
target triple = "x86_64-pc-linux-gnu"

@.str = private unnamed_addr constant [3 x i8] c"%s\00", align 1
@.str.1 = private unnamed_addr constant [3 x i8] c"%c\00", align 1

; Function Attrs: noinline nounwind uwtable
define dso_local i32 @main() #0 {
  %1 = alloca i32, align 4
  %2 = alloca i32, align 4
  %3 = alloca i32, align 4
  %4 = alloca i32, align 4
  %5 = alloca i32, align 4
  %6 = alloca i32, align 4
  %7 = alloca i32, align 4
  %8 = alloca [20 x i32], align 16
  %9 = alloca i32, align 4
  %10 = alloca [10 x i32], align 16
  %11 = alloca [200 x i8], align 16
  %12 = alloca [100 x i8], align 16
  %13 = alloca [100 x i8], align 16
  store i32 0, i32* %1, align 4
  %14 = bitcast [20 x i32]* %8 to i8*
  call void @llvm.memset.p0i8.i64(i8* align 16 %14, i8 0, i64 80, i1 false)
  %15 = bitcast [10 x i32]* %10 to i8*
  call void @llvm.memset.p0i8.i64(i8* align 16 %15, i8 0, i64 40, i1 false)
  %16 = getelementptr inbounds [200 x i8], [200 x i8]* %11, i64 0, i64 0
  %17 = call i32 (i8*, ...) bitcast (i32 (...)* @gets to i32 (i8*, ...)*)(i8* %16)
  %18 = getelementptr inbounds [100 x i8], [100 x i8]* %12, i64 0, i64 0
  %19 = call i32 (i8*, ...) bitcast (i32 (...)* @gets to i32 (i8*, ...)*)(i8* %18)
  %20 = getelementptr inbounds [100 x i8], [100 x i8]* %13, i64 0, i64 0
  %21 = call i32 (i8*, ...) bitcast (i32 (...)* @gets to i32 (i8*, ...)*)(i8* %20)
  %22 = getelementptr inbounds [100 x i8], [100 x i8]* %12, i64 0, i64 0
  %23 = call i64 @strlen(i8* %22) #4
  %24 = trunc i64 %23 to i32
  store i32 %24, i32* %6, align 4
  %25 = getelementptr inbounds [100 x i8], [100 x i8]* %13, i64 0, i64 0
  %26 = call i64 @strlen(i8* %25) #4
  %27 = trunc i64 %26 to i32
  store i32 %27, i32* %9, align 4
  %28 = getelementptr inbounds [200 x i8], [200 x i8]* %11, i64 0, i64 0
  %29 = call i64 @strlen(i8* %28) #4
  %30 = trunc i64 %29 to i32
  store i32 %30, i32* %7, align 4
  store i32 0, i32* %4, align 4
  store i32 0, i32* %5, align 4
  store i32 0, i32* %2, align 4
  br label %31

31:                                               ; preds = %96, %0
  %32 = load i32, i32* %2, align 4
  %33 = load i32, i32* %7, align 4
  %34 = icmp slt i32 %32, %33
  br i1 %34, label %35, label %99

35:                                               ; preds = %31
  %36 = load i32, i32* %2, align 4
  %37 = sext i32 %36 to i64
  %38 = getelementptr inbounds [200 x i8], [200 x i8]* %11, i64 0, i64 %37
  %39 = load i8, i8* %38, align 1
  %40 = sext i8 %39 to i32
  %41 = load i32, i32* %5, align 4
  %42 = sext i32 %41 to i64
  %43 = getelementptr inbounds [100 x i8], [100 x i8]* %12, i64 0, i64 %42
  %44 = load i8, i8* %43, align 1
  %45 = sext i8 %44 to i32
  %46 = icmp eq i32 %40, %45
  br i1 %46, label %47, label %94

47:                                               ; preds = %35
  %48 = load i32, i32* %5, align 4
  %49 = add nsw i32 %48, 1
  store i32 %49, i32* %5, align 4
  %50 = load i32, i32* %2, align 4
  %51 = add nsw i32 %50, 1
  %52 = load i32, i32* %7, align 4
  %53 = sub nsw i32 %52, 1
  %54 = icmp slt i32 %51, %53
  br i1 %54, label %55, label %78

55:                                               ; preds = %47
  %56 = load i32, i32* %5, align 4
  %57 = load i32, i32* %6, align 4
  %58 = icmp eq i32 %56, %57
  br i1 %58, label %59, label %77

59:                                               ; preds = %55
  %60 = load i32, i32* %2, align 4
  %61 = add nsw i32 %60, 1
  %62 = sext i32 %61 to i64
  %63 = getelementptr inbounds [200 x i8], [200 x i8]* %11, i64 0, i64 %62
  %64 = load i8, i8* %63, align 1
  %65 = sext i8 %64 to i32
  %66 = icmp eq i32 %65, 32
  br i1 %66, label %67, label %77

67:                                               ; preds = %59
  %68 = load i32, i32* %2, align 4
  %69 = load i32, i32* %6, align 4
  %70 = sub nsw i32 %68, %69
  %71 = add nsw i32 %70, 1
  %72 = load i32, i32* %4, align 4
  %73 = sext i32 %72 to i64
  %74 = getelementptr inbounds [10 x i32], [10 x i32]* %10, i64 0, i64 %73
  store i32 %71, i32* %74, align 4
  %75 = load i32, i32* %4, align 4
  %76 = add nsw i32 %75, 1
  store i32 %76, i32* %4, align 4
  store i32 0, i32* %5, align 4
  br label %77

77:                                               ; preds = %67, %59, %55
  br label %93

78:                                               ; preds = %47
  %79 = load i32, i32* %5, align 4
  %80 = load i32, i32* %6, align 4
  %81 = icmp eq i32 %79, %80
  br i1 %81, label %82, label %92

82:                                               ; preds = %78
  %83 = load i32, i32* %2, align 4
  %84 = load i32, i32* %6, align 4
  %85 = sub nsw i32 %83, %84
  %86 = add nsw i32 %85, 1
  %87 = load i32, i32* %4, align 4
  %88 = sext i32 %87 to i64
  %89 = getelementptr inbounds [10 x i32], [10 x i32]* %10, i64 0, i64 %88
  store i32 %86, i32* %89, align 4
  %90 = load i32, i32* %4, align 4
  %91 = add nsw i32 %90, 1
  store i32 %91, i32* %4, align 4
  store i32 0, i32* %5, align 4
  br label %92

92:                                               ; preds = %82, %78
  br label %93

93:                                               ; preds = %92, %77
  br label %95

94:                                               ; preds = %35
  store i32 0, i32* %5, align 4
  br label %95

95:                                               ; preds = %94, %93
  br label %96

96:                                               ; preds = %95
  %97 = load i32, i32* %2, align 4
  %98 = add nsw i32 %97, 1
  store i32 %98, i32* %2, align 4
  br label %31

99:                                               ; preds = %31
  store i32 0, i32* %3, align 4
  store i32 0, i32* %2, align 4
  br label %100

100:                                              ; preds = %204, %99
  %101 = load i32, i32* %3, align 4
  %102 = sext i32 %101 to i64
  %103 = getelementptr inbounds [10 x i32], [10 x i32]* %10, i64 0, i64 %102
  %104 = load i32, i32* %103, align 4
  %105 = icmp sgt i32 %104, 0
  br i1 %105, label %106, label %157

106:                                              ; preds = %100
  %107 = load i32, i32* %2, align 4
  %108 = load i32, i32* %3, align 4
  %109 = sext i32 %108 to i64
  %110 = getelementptr inbounds [10 x i32], [10 x i32]* %10, i64 0, i64 %109
  %111 = load i32, i32* %110, align 4
  %112 = icmp eq i32 %107, %111
  br i1 %112, label %113, label %135

113:                                              ; preds = %106
  %114 = load i32, i32* %4, align 4
  %115 = icmp sgt i32 %114, 0
  br i1 %115, label %116, label %135

116:                                              ; preds = %113
  %117 = load i32, i32* %3, align 4
  %118 = sext i32 %117 to i64
  %119 = getelementptr inbounds [10 x i32], [10 x i32]* %10, i64 0, i64 %118
  %120 = load i32, i32* %119, align 4
  %121 = sub nsw i32 %120, 1
  %122 = sext i32 %121 to i64
  %123 = getelementptr inbounds [200 x i8], [200 x i8]* %11, i64 0, i64 %122
  %124 = load i8, i8* %123, align 1
  %125 = sext i8 %124 to i32
  %126 = icmp eq i32 %125, 32
  br i1 %126, label %127, label %135

127:                                              ; preds = %116
  %128 = getelementptr inbounds [100 x i8], [100 x i8]* %13, i64 0, i64 0
  %129 = call i32 (i8*, ...) @printf(i8* getelementptr inbounds ([3 x i8], [3 x i8]* @.str, i64 0, i64 0), i8* %128)
  %130 = load i32, i32* %2, align 4
  %131 = load i32, i32* %6, align 4
  %132 = add nsw i32 %130, %131
  store i32 %132, i32* %2, align 4
  %133 = load i32, i32* %3, align 4
  %134 = add nsw i32 %133, 1
  store i32 %134, i32* %3, align 4
  br label %156

135:                                              ; preds = %116, %113, %106
  %136 = load i32, i32* %3, align 4
  %137 = sub nsw i32 %136, 1
  %138 = sext i32 %137 to i64
  %139 = getelementptr inbounds [10 x i32], [10 x i32]* %10, i64 0, i64 %138
  %140 = load i32, i32* %139, align 4
  %141 = load i32, i32* %7, align 4
  %142 = sub nsw i32 %141, 1
  %143 = load i32, i32* %6, align 4
  %144 = sub nsw i32 %142, %143
  %145 = icmp slt i32 %140, %144
  br i1 %145, label %146, label %155

146:                                              ; preds = %135
  %147 = load i32, i32* %2, align 4
  %148 = sext i32 %147 to i64
  %149 = getelementptr inbounds [200 x i8], [200 x i8]* %11, i64 0, i64 %148
  %150 = load i8, i8* %149, align 1
  %151 = sext i8 %150 to i32
  %152 = call i32 (i8*, ...) @printf(i8* getelementptr inbounds ([3 x i8], [3 x i8]* @.str.1, i64 0, i64 0), i32 %151)
  %153 = load i32, i32* %2, align 4
  %154 = add nsw i32 %153, 1
  store i32 %154, i32* %2, align 4
  br label %155

155:                                              ; preds = %146, %135
  br label %156

156:                                              ; preds = %155, %127
  br label %157

157:                                              ; preds = %156, %100
  %158 = load i32, i32* %3, align 4
  %159 = sext i32 %158 to i64
  %160 = getelementptr inbounds [10 x i32], [10 x i32]* %10, i64 0, i64 %159
  %161 = load i32, i32* %160, align 4
  %162 = icmp eq i32 %161, 0
  br i1 %162, label %163, label %203

163:                                              ; preds = %157
  %164 = load i32, i32* %2, align 4
  %165 = load i32, i32* %3, align 4
  %166 = sext i32 %165 to i64
  %167 = getelementptr inbounds [10 x i32], [10 x i32]* %10, i64 0, i64 %166
  %168 = load i32, i32* %167, align 4
  %169 = icmp eq i32 %164, %168
  br i1 %169, label %170, label %181

170:                                              ; preds = %163
  %171 = load i32, i32* %4, align 4
  %172 = icmp sgt i32 %171, 0
  br i1 %172, label %173, label %181

173:                                              ; preds = %170
  %174 = getelementptr inbounds [100 x i8], [100 x i8]* %13, i64 0, i64 0
  %175 = call i32 (i8*, ...) @printf(i8* getelementptr inbounds ([3 x i8], [3 x i8]* @.str, i64 0, i64 0), i8* %174)
  %176 = load i32, i32* %2, align 4
  %177 = load i32, i32* %6, align 4
  %178 = add nsw i32 %176, %177
  store i32 %178, i32* %2, align 4
  %179 = load i32, i32* %3, align 4
  %180 = add nsw i32 %179, 1
  store i32 %180, i32* %3, align 4
  br label %202

181:                                              ; preds = %170, %163
  %182 = load i32, i32* %3, align 4
  %183 = sub nsw i32 %182, 1
  %184 = sext i32 %183 to i64
  %185 = getelementptr inbounds [10 x i32], [10 x i32]* %10, i64 0, i64 %184
  %186 = load i32, i32* %185, align 4
  %187 = load i32, i32* %7, align 4
  %188 = sub nsw i32 %187, 1
  %189 = load i32, i32* %6, align 4
  %190 = sub nsw i32 %188, %189
  %191 = icmp slt i32 %186, %190
  br i1 %191, label %192, label %201

192:                                              ; preds = %181
  %193 = load i32, i32* %2, align 4
  %194 = sext i32 %193 to i64
  %195 = getelementptr inbounds [200 x i8], [200 x i8]* %11, i64 0, i64 %194
  %196 = load i8, i8* %195, align 1
  %197 = sext i8 %196 to i32
  %198 = call i32 (i8*, ...) @printf(i8* getelementptr inbounds ([3 x i8], [3 x i8]* @.str.1, i64 0, i64 0), i32 %197)
  %199 = load i32, i32* %2, align 4
  %200 = add nsw i32 %199, 1
  store i32 %200, i32* %2, align 4
  br label %201

201:                                              ; preds = %192, %181
  br label %202

202:                                              ; preds = %201, %173
  br label %203

203:                                              ; preds = %202, %157
  br label %204

204:                                              ; preds = %203
  %205 = load i32, i32* %2, align 4
  %206 = load i32, i32* %7, align 4
  %207 = icmp slt i32 %205, %206
  br i1 %207, label %100, label %208

208:                                              ; preds = %204
  ret i32 0
}

; Function Attrs: argmemonly nounwind willreturn
declare void @llvm.memset.p0i8.i64(i8* nocapture writeonly, i8, i64, i1 immarg) #1

declare dso_local i32 @gets(...) #2

; Function Attrs: nounwind readonly
declare dso_local i64 @strlen(i8*) #3

declare dso_local i32 @printf(i8*, ...) #2


!llvm.module.flags = !{!0}
!llvm.ident = !{!1}

!0 = !{i32 1, !"wchar_size", i32 4}
!1 = !{!"clang version 10.0.0-4ubuntu1 "}
